(lp0
((lp1
I-1
aI0
aI0
aI0
aI0
aI0
aI0
aI0
aI0
aI0
aI0
aI0
aI0
aI0
aI-1
aI-1
aI0
aI-1
aI-1
aI0
aI0
aI0
aI0
aI2
aI2
aI4
aI3
aI0
aI-4
aI0
aI0
aI0
aI0
aI-2
aI-2
aI0
aI0
aI0
aI0
aI0
aI0
aI0
aI0
aI-2
aI-1
aI0
aI0
aI-1
aI0
aI0
aI0
aI0
aI0
aI0
aI-1
aI-1
aI-1
aI-1
aI-1
aI0
aI0
aI0
aI0
aI0
aI0
aI-1
aI1
aI-1
aI-1
aI0
aI0
aI0
aI0
aI-1
aI0
aI1
aI-1
aI-1
aI0
aI0
aI0
aI0
aI0
aI0
aI-1
aI-1
aI-1
aI-1
aI0
aI0
aI0
aI0
aI0
aI0
aI0
aI0
aI0
aI0
aI0
aI0
aI0
aS'a'
p2
tp3
a((lp4
I0
aI0
aI0
aI0
aI0
aI0
aI0
aI0
aI0
aI0
aI0
aI0
aI0
aI0
aI0
aI0
aI0
aI0
aI0
aI0
aI0
aI0
aI0
aI0
aI0
aI-1
aI-1
aI-1
aI0
aI0
aI0
aI0
aI0
aI1
aI1
aI0
aI0
aI-1
aI-1
aI0
aI0
aI0
aI0
aI1
aI0
aI0
aI0
aI0
aI-1
aI0
aI0
aI0
aI0
aI0
aI0
aI0
aI0
aI0
aI0
aI0
aI0
aI0
aI0
aI0
aI0
aI1
aI-1
aI0
aI0
aI0
aI0
aI0
aI0
aI1
aI0
aI-1
aI1
aI0
aI-1
aI0
aI0
aI0
aI0
aI0
aI0
aI0
aI0
aI0
aI0
aI0
aI0
aI0
aI0
aI0
aI0
aI0
aI0
aI0
aI0
aI0
aI0
aS'b'
p5
tp6
a((lp7
I0
aI0
aI0
aI0
aI0
aI0
aI0
aI0
aI0
aI0
aI0
aI0
aI0
aI0
aI-1
aI-1
aI0
aI-1
aI-1
aI0
aI0
aI0
aI0
aI-3
aI-3
aI-2
aI-3
aI0
aI2
aI0
aI0
aI0
aI0
aI-1
aI-1
aI0
aI0
aI0
aI0
aI0
aI0
aI0
aI0
aI-1
aI0
aI1
aI1
aI0
aI0
aI0
aI0
aI0
aI0
aI1
aI0
aI-1
aI-1
aI0
aI0
aI0
aI0
aI0
aI0
aI1
aI1
aI0
aI1
aI0
aI0
aI0
aI0
aI0
aI0
aI0
aI1
aI1
aI0
aI0
aI0
aI0
aI0
aI0
aI0
aI0
aI-1
aI-1
aI-1
aI-1
aI0
aI0
aI0
aI0
aI0
aI0
aI0
aI0
aI0
aI0
aI0
aI0
aI0
aS'd'
p8
tp9
a((lp10
I-1
aI0
aI0
aI0
aI0
aI0
aI0
aI0
aI0
aI0
aI0
aI0
aI0
aI0
aI1
aI1
aI3
aI1
aI1
aI0
aI0
aI0
aI0
aI0
aI0
aI-1
aI-3
aI-1
aI0
aI0
aI0
aI0
aI0
aI1
aI1
aI0
aI0
aI-1
aI-1
aI0
aI0
aI0
aI0
aI1
aI-1
aI-2
aI-2
aI-1
aI-1
aI0
aI0
aI0
aI0
aI1
aI-1
aI-2
aI-2
aI-1
aI-1
aI0
aI0
aI0
aI0
aI-2
aI1
aI3
aI1
aI-1
aI-1
aI0
aI0
aI0
aI0
aI0
aI-2
aI-2
aI0
aI-1
aI-1
aI0
aI0
aI0
aI0
aI0
aI-2
aI-2
aI-2
aI1
aI3
aI0
aI0
aI0
aI0
aI0
aI0
aI0
aI0
aI0
aI0
aI0
aI0
aS'q'
p11
tp12
a((lp13
I0
aI0
aI0
aI0
aI0
aI0
aI0
aI0
aI0
aI0
aI0
aI0
aI0
aI0
aI1
aI1
aI-2
aI1
aI1
aI0
aI0
aI0
aI0
aI1
aI1
aI0
aI3
aI0
aI0
aI0
aI0
aI0
aI0
aI1
aI1
aI0
aI0
aI0
aI0
aI0
aI0
aI0
aI0
aI1
aI0
aI-1
aI-1
aI0
aI0
aI0
aI0
aI0
aI0
aI-3
aI0
aI3
aI3
aI0
aI0
aI0
aI0
aI0
aI0
aI-1
aI-3
aI-2
aI-3
aI0
aI0
aI0
aI0
aI0
aI0
aI0
aI-1
aI-1
aI0
aI0
aI0
aI0
aI0
aI0
aI0
aI0
aI3
aI3
aI3
aI1
aI-2
aI0
aI0
aI0
aI0
aI0
aI0
aI0
aI0
aI0
aI0
aI0
aI0
aS'g'
p14
tp15
a.