(lp0
I-1
aI0
aI0
aI0
aI0
aI0
aI0
aI0
aI0
aI0
aI0
aI0
aI0
aI0
aI1
aI1
aI3
aI1
aI1
aI0
aI0
aI0
aI0
aI-1
aI-1
aI-1
aI-3
aI0
aI1
aI0
aI0
aI0
aI0
aI0
aI0
aI0
aI0
aI0
aI0
aI0
aI0
aI0
aI0
aI0
aI-1
aI-2
aI-2
aI-1
aI0
aI0
aI0
aI0
aI0
aI1
aI-1
aI-2
aI-2
aI-1
aI-1
aI0
aI0
aI0
aI0
aI-2
aI1
aI2
aI2
aI-1
aI-1
aI0
aI0
aI0
aI0
aI-1
aI-2
aI-1
aI-1
aI-1
aI0
aI0
aI0
aI0
aI0
aI0
aI-2
aI-2
aI-2
aI1
aI3
aI0
aI0
aI0
aI0
aI0
aI0
aI0
aI0
aI0
aI0
aI0
aI0
a.